target datalayout = "e-m:e-p270:32:32-p271:32:32-p272:64:64-i64:64-i128:128-f80:128-n8:16:32:64-S128"
target triple = "x86_64-pc-linux-gnu"

%struct._packet_info = type { ptr, ptr, i32, i32, %struct.nstime_t, %struct.nstime_t, %struct.nstime_t, i8, ptr, ptr, ptr, ptr, %struct._address, %struct._address, %struct._address, %struct._address, %struct._address, %struct._address, i32, ptr, i8, [3 x i8], %struct.anon, i32, i32, i32, i32, ptr, i8, ptr, ptr, i16, i16, i32, i32, i16, i32, i32, ptr, ptr, ptr, i8, i8, i16, i16, i16, i32, i16, i16, ptr, ptr, ptr, ptr, ptr, i32, i32 }
%struct.nstime_t = type { i64, i32 }
%struct._address = type { i32, i32, ptr, ptr }
%struct.anon = type { i8, [3 x i8] }
%struct._tvbparse_elem_t = type { i32, ptr, ptr, i32, i32, ptr, ptr, ptr, ptr, ptr }

@want_ignore = hidden global ptr null, align 8
@want_stream_end_tag = hidden global ptr null, align 8
@hf_xmpp_stream_end = external global i32, align 4
@.str.109 = private unnamed_addr constant [11 x i8] c"STREAM END\00", align 1

; Function Attrs: null_pointer_is_valid sspstrong uwtable
define hidden zeroext i1 @xmpp_stream_close(ptr noundef %0, ptr noundef %1, ptr noundef %2) #0 {
  %4 = alloca i1, align 1
  %5 = alloca ptr, align 8
  %6 = alloca ptr, align 8
  %7 = alloca ptr, align 8
  %8 = alloca ptr, align 8
  %9 = alloca ptr, align 8
  %10 = alloca i32, align 4
  store ptr %0, ptr %5, align 8
  store ptr %1, ptr %6, align 8
  store ptr %2, ptr %7, align 8
  call void @llvm.lifetime.start.p0(i64 8, ptr %8) #6
  call void @llvm.lifetime.start.p0(i64 8, ptr %9) #6
  %11 = load ptr, ptr %7, align 8
  %12 = getelementptr inbounds nuw %struct._packet_info, ptr %11, i32 0, i32 51
  %13 = load ptr, ptr %12, align 8
  %14 = load ptr, ptr %6, align 8
  %15 = load ptr, ptr @want_ignore, align 8
  %16 = call ptr @tvbparse_init(ptr noundef %13, ptr noundef %14, i32 noundef 0, i32 noundef -1, ptr noundef null, ptr noundef %15)
  store ptr %16, ptr %8, align 8
  %17 = load ptr, ptr %8, align 8
  %18 = load ptr, ptr @want_stream_end_tag, align 8
  %19 = call ptr @tvbparse_get(ptr noundef %17, ptr noundef %18)
  store ptr %19, ptr %9, align 8
  %20 = icmp ne ptr %19, null
  br i1 %20, label %21, label %35

21:                                               ; preds = %3
  %22 = load ptr, ptr %5, align 8
  %23 = load i32, ptr @hf_xmpp_stream_end, align 4
  %24 = load ptr, ptr %6, align 8
  %25 = load ptr, ptr %9, align 8
  %26 = getelementptr inbounds nuw %struct._tvbparse_elem_t, ptr %25, i32 0, i32 3
  %27 = load i32, ptr %26, align 8
  %28 = load ptr, ptr %9, align 8
  %29 = getelementptr inbounds nuw %struct._tvbparse_elem_t, ptr %28, i32 0, i32 4
  %30 = load i32, ptr %29, align 4
  %31 = call ptr @proto_tree_add_item(ptr noundef %22, i32 noundef %23, ptr noundef %24, i32 noundef %27, i32 noundef %30, i32 noundef 0)
  %32 = load ptr, ptr %7, align 8
  %33 = getelementptr inbounds nuw %struct._packet_info, ptr %32, i32 0, i32 1
  %34 = load ptr, ptr %33, align 8
  call void @col_set_str(ptr noundef %34, i32 noundef 25, ptr noundef @.str.109)
  store i1 true, ptr %4, align 1
  store i32 1, ptr %10, align 4
  br label %36

35:                                               ; preds = %3
  store i1 false, ptr %4, align 1
  store i32 1, ptr %10, align 4
  br label %36

36:                                               ; preds = %35, %21
  call void @llvm.lifetime.end.p0(i64 8, ptr %9) #6
  call void @llvm.lifetime.end.p0(i64 8, ptr %8) #6
  %37 = load i1, ptr %4, align 1
  ret i1 %37
}