; Function Attrs: null_pointer_is_valid sspstrong uwtable
define hidden noundef zeroext i1 @xmpp_stream_close(ptr noundef %0, ptr noundef %1, ptr noundef readonly captures(none) %2) local_unnamed_addr #0 {
  %4 = getelementptr inbounds nuw i8, ptr %2, i64 408
  %5 = load ptr, ptr %4, align 8
  %6 = load ptr, ptr @want_ignore, align 8
  %7 = tail call ptr @tvbparse_init(ptr noundef %5, ptr noundef %1, i32 noundef 0, i32 noundef -1, ptr noundef null, ptr noundef %6)
  %8 = load ptr, ptr @want_stream_end_tag, align 8
  %9 = tail call ptr @tvbparse_get(ptr noundef %7, ptr noundef %8)
  %.not = icmp ne ptr %9, null
  br i1 %.not, label %10, label %19

10:                                               ; preds = %3
  %11 = load i32, ptr @hf_xmpp_stream_end, align 4
  %12 = getelementptr inbounds nuw i8, ptr %9, i64 24
  %13 = load i32, ptr %12, align 8
  %14 = getelementptr inbounds nuw i8, ptr %9, i64 28
  %15 = load i32, ptr %14, align 4
  %16 = tail call ptr @proto_tree_add_item(ptr noundef %0, i32 noundef %11, ptr noundef %1, i32 noundef %13, i32 noundef %15, i32 noundef 0)
  %17 = getelementptr inbounds nuw i8, ptr %2, i64 8
  %18 = load ptr, ptr %17, align 8
  tail call void @col_set_str(ptr noundef %18, i32 noundef 25, ptr noundef nonnull @.str.109)
  br label %19

19:                                               ; preds = %3, %10
  ret i1 %.not
}